BL51 BANKED LINKER/LOCATER V6.22.2.0                                                    01/17/2023  15:09:26  PAGE 1


BL51 BANKED LINKER/LOCATER V6.22.2.0, INVOKED BY:
C:\KEIL_C51\C51\BIN\BL51.EXE .\Objects\STARTUP.obj, .\Objects\main.obj TO .\Objects\STC8H1K17_ESC_TEST PRINT (.\Listings
>> \STC8H1K17_ESC_TEST.m51) RAMSIZE (256)


MEMORY MODEL: SMALL


INPUT MODULES INCLUDED:
  .\Objects\STARTUP.obj (?C_STARTUP)
  .\Objects\main.obj (MAIN)
  C:\KEIL_C51\C51\LIB\C51S.LIB (?C?UIDIV)
  C:\KEIL_C51\C51\LIB\C51S.LIB (?C?ULSHR)


LINK MAP OF MODULE:  .\Objects\STC8H1K17_ESC_TEST (?C_STARTUP)


            TYPE    BASE      LENGTH    RELOCATION   SEGMENT NAME
            -----------------------------------------------------

            * * * * * * *   D A T A   M E M O R Y   * * * * * * *
            REG     0000H     0008H     ABSOLUTE     "REG BANK 0"
            DATA    0008H     0006H     UNIT         _DATA_GROUP_
                    000EH     0012H                  *** GAP ***
            BIT     0020H.0   0000H.6   UNIT         ?BI?MAIN
                    0020H.6   0000H.2                *** GAP ***
            DATA    0021H     0033H     UNIT         ?DT?MAIN
            IDATA   0054H     0001H     UNIT         ?STACK

            * * * * * * *   C O D E   M E M O R Y   * * * * * * *
            CODE    0000H     0003H     ABSOLUTE     
            CODE    0003H     0003H     UNIT         ?PR?TIMER0_ISR?MAIN
            CODE    0006H     0003H     UNIT         ?PR?TIMER1_ISR?MAIN
                    0009H     0002H                  *** GAP ***
            CODE    000BH     0003H     ABSOLUTE     
            CODE    000EH     000DH     UNIT         ?PR?CMP_CONFIG?MAIN
            CODE    001BH     0003H     ABSOLUTE     
            CODE    001EH     0031H     UNIT         ?PR?_BEEP_1KHZ?MAIN
            CODE    004FH     0013H     UNIT         ?PR?TIMER1_CONFIG?MAIN
                    0062H     0001H                  *** GAP ***
            CODE    0063H     0003H     ABSOLUTE     
            CODE    0066H     001EH     UNIT         ?PR?_DELAY_US?MAIN
            CODE    0084H     0019H     UNIT         ?PR?ADC_CONFIG?MAIN
            CODE    009DH     000CH     UNIT         ?C_C51STARTUP
                    00A9H     0002H                  *** GAP ***
            CODE    00ABH     0003H     ABSOLUTE     
            CODE    00AEH     0016H     UNIT         ?PR?PORT_INIT?MAIN
            CODE    00C4H     0011H     UNIT         ?PR?TIMER0_CONFIG?MAIN
                    00D5H     0006H                  *** GAP ***
            CODE    00DBH     0003H     ABSOLUTE     
            CODE    00DEH     01B3H     UNIT         ?PR?MAIN?MAIN
            CODE    0291H     00E6H     UNIT         ?PR?CMP_ISR?MAIN
            CODE    0377H     00C0H     UNIT         ?PR?MOTOR_STEP?MAIN
            CODE    0437H     009EH     UNIT         ?PR?PWMA_CONFIG?MAIN
            CODE    04D5H     006BH     UNIT         ?PR?MOTOR_START?MAIN
            CODE    0540H     0068H     UNIT         ?C?LIB_CODE
            CODE    05A8H     0057H     UNIT         ?PR?PWMB_ISR?MAIN
BL51 BANKED LINKER/LOCATER V6.22.2.0                                                  01/17/2023  15:09:26  PAGE 2


            CODE    05FFH     0054H     UNIT         ?PR?TIMER2_ISR?MAIN
            CODE    0653H     004EH     UNIT         ?PR?PWMB_CONFIG?MAIN
            CODE    06A1H     0010H     UNIT         ?PR?_DELAY_N_MS?MAIN
            CODE    06B1H     000FH     UNIT         ?PR?TIMER2_CONFIG?MAIN



OVERLAY MAP OF MODULE:   .\Objects\STC8H1K17_ESC_TEST (?C_STARTUP)


SEGMENT                          DATA_GROUP 
  +--> CALLED SEGMENT          START    LENGTH
----------------------------------------------
?C_C51STARTUP                  -----    -----
  +--> ?PR?MAIN?MAIN

?PR?MAIN?MAIN                  0008H    0006H
  +--> ?PR?PORT_INIT?MAIN
  +--> ?PR?PWMA_CONFIG?MAIN
  +--> ?PR?ADC_CONFIG?MAIN
  +--> ?PR?CMP_CONFIG?MAIN
  +--> ?PR?TIMER0_CONFIG?MAIN
  +--> ?PR?TIMER1_CONFIG?MAIN
  +--> ?PR?TIMER2_CONFIG?MAIN
  +--> ?PR?PWMB_CONFIG?MAIN
  +--> ?PR?_DELAY_N_MS?MAIN
  +--> ?PR?_BEEP_1KHZ?MAIN
  +--> ?PR?MOTOR_START?MAIN

?PR?_BEEP_1KHZ?MAIN            -----    -----
  +--> ?PR?_DELAY_US?MAIN

?PR?MOTOR_START?MAIN           -----    -----
  +--> ?PR?MOTOR_STEP?MAIN
  +--> ?PR?_DELAY_N_MS?MAIN
  +--> ?PR?_DELAY_US?MAIN

*** NEW ROOT ***************************************************

?PR?TIMER2_ISR?MAIN            -----    -----
  +--> ?PR?MOTOR_STEP?MAIN



SYMBOL TABLE OF MODULE:  .\Objects\STC8H1K17_ESC_TEST (?C_STARTUP)

  VALUE           TYPE          NAME
  ----------------------------------

  -------         MODULE        ?C_STARTUP
  C:009DH         SEGMENT       ?C_C51STARTUP
  I:0054H         SEGMENT       ?STACK
  C:0000H         PUBLIC        ?C_STARTUP
  D:00E0H         SYMBOL        ACC
  D:00F0H         SYMBOL        B
  D:0083H         SYMBOL        DPH
  D:0082H         SYMBOL        DPL
BL51 BANKED LINKER/LOCATER V6.22.2.0                                                  01/17/2023  15:09:26  PAGE 3


  N:0000H         SYMBOL        IBPSTACK
  N:0100H         SYMBOL        IBPSTACKTOP
  N:0080H         SYMBOL        IDATALEN
  C:00A0H         SYMBOL        IDATALOOP
  N:0000H         SYMBOL        PBPSTACK
  N:0100H         SYMBOL        PBPSTACKTOP
  N:0000H         SYMBOL        PDATALEN
  N:0000H         SYMBOL        PDATASTART
  N:0000H         SYMBOL        PPAGE
  N:0000H         SYMBOL        PPAGEENABLE
  D:00A0H         SYMBOL        PPAGE_SFR
  D:0081H         SYMBOL        SP
  C:009DH         SYMBOL        STARTUP1
  N:0000H         SYMBOL        XBPSTACK
  N:0000H         SYMBOL        XBPSTACKTOP
  N:0000H         SYMBOL        XDATALEN
  N:0000H         SYMBOL        XDATASTART
  C:0000H         LINE#         126
  C:009DH         LINE#         133
  C:009FH         LINE#         134
  C:00A0H         LINE#         135
  C:00A1H         LINE#         136
  C:00A3H         LINE#         185
  C:00A6H         LINE#         196
  -------         ENDMOD        ?C_STARTUP

  -------         MODULE        MAIN
  C:0000H         SYMBOL        _ICE_DUMMY_
  D:0093H         PUBLIC        P0M1
  D:0092H         PUBLIC        P1M0
  D:0096H         PUBLIC        P2M0
  D:0091H         PUBLIC        P1M1
  D:0080H         PUBLIC        P0
  D:00B2H         PUBLIC        P3M0
  D:0095H         PUBLIC        P2M1
  D:0090H         PUBLIC        P1
  C:06A1H         PUBLIC        _Delay_n_ms
  D:00B1H         PUBLIC        P3M1
  D:00A0H         PUBLIC        P2
  C:0084H         PUBLIC        ADC_Config
  D:0021H         PUBLIC        PWM_Set
  D:00CAH         PUBLIC        P5M0
  D:00B0H         PUBLIC        P3
  C:0003H         PUBLIC        Timer0_ISR
  D:00C0H         PUBLIC        P4
  C:0006H         PUBLIC        Timer1_ISR
  D:00C8H         PUBLIC        P5
  C:05FFH         PUBLIC        Timer2_ISR
  C:04D5H         PUBLIC        Motor_Start
  D:00E8H         PUBLIC        P6
  B:00A8H.7       PUBLIC        EA
  C:05A8H         PUBLIC        PWMB_ISR
  D:00F8H         PUBLIC        P7
  D:0022H         PUBLIC        timeout
  D:00BAH         PUBLIC        P_SW2
  D:00A8H         PUBLIC        IE
  C:0377H         PUBLIC        Motor_Step
BL51 BANKED LINKER/LOCATER V6.22.2.0                                                  01/17/2023  15:09:26  PAGE 4


  D:0023H         PUBLIC        pwmb_cap_up
  D:0025H         PUBLIC        demagnetizing_cnt
  D:00B8H         PUBLIC        IP
  D:00DEH         PUBLIC        ADCCFG
  C:000EH         PUBLIC        CMP_Config
  C:00AEH         PUBLIC        Port_Init
  D:0026H         PUBLIC        cap_res_lp
  B:0020H.0       PUBLIC        t0_flag
  B:0020H.1       PUBLIC        t1_flag
  C:00DEH         PUBLIC        main
  D:00E6H         PUBLIC        CMPCR1
  D:0028H         PUBLIC        cap_res_g
  D:00E7H         PUBLIC        CMPCR2
  D:0038H         PUBLIC        time_index
  C:0291H         PUBLIC        CMP_ISR
  D:00BCH         PUBLIC        ADC_CONTR
  B:0090H.0       PUBLIC        P10
  B:0090H.1       PUBLIC        P11
  B:0090H.2       PUBLIC        P12
  D:0098H         PUBLIC        SCON
  B:0090H.3       PUBLIC        P13
  B:0090H.4       PUBLIC        P14
  D:0089H         PUBLIC        TMOD
  D:0088H         PUBLIC        TCON
  B:0090H.5       PUBLIC        P15
  D:0039H         PUBLIC        dtmp
  D:003BH         PUBLIC        uptmp
  C:001EH         PUBLIC        _beep_1KHz
  D:003DH         PUBLIC        step
  B:0020H.2       PUBLIC        m_starting
  D:00AFH         PUBLIC        IE2
  D:008EH         PUBLIC        AUXR
  B:00A8H.1       PUBLIC        ET0
  B:00A8H.3       PUBLIC        ET1
  D:003EH         PUBLIC        ch
  D:008CH         PUBLIC        TH0
  D:008DH         PUBLIC        TH1
  D:003FH         PUBLIC        pwmb_cap
  D:00D6H         PUBLIC        T2H
  D:008AH         PUBLIC        TL0
  D:008BH         PUBLIC        TL1
  D:00D7H         PUBLIC        T2L
  B:0020H.3       PUBLIC        m_running
  D:0041H         PUBLIC        PWM_Value
  B:0088H.4       PUBLIC        TR0
  B:0088H.6       PUBLIC        TR1
  D:0042H         PUBLIC        phase_time_tmp
  C:006DH         PUBLIC        _delay_us
  C:00C4H         PUBLIC        Timer0_Config
  C:004FH         PUBLIC        Timer1_Config
  C:06B1H         PUBLIC        Timer2_Config
  C:0437H         PUBLIC        PWMA_Config
  C:0653H         PUBLIC        PWMB_Config
  B:0020H.4       PUBLIC        pwmb_it_flag
  D:0052H         PUBLIC        pwmb_cap_res
  D:00D0H         PUBLIC        PSW
  B:0020H.5       PUBLIC        pwmb_up_flag
BL51 BANKED LINKER/LOCATER V6.22.2.0                                                  01/17/2023  15:09:26  PAGE 5


  D:0094H         PUBLIC        P0M0
  -------         PROC          PWMA_CONFIG
  C:0437H         LINE#         17
  C:0437H         LINE#         18
  C:0437H         LINE#         20
  C:0439H         LINE#         21
  C:043BH         LINE#         22
  C:043DH         LINE#         23
  C:043FH         LINE#         24
  C:0441H         LINE#         25
  C:0443H         LINE#         28
  C:0446H         LINE#         29
  C:0449H         LINE#         31
  C:0452H         LINE#         32
  C:0458H         LINE#         34
  C:0461H         LINE#         35
  C:0466H         LINE#         36
  C:0468H         LINE#         37
  C:046CH         LINE#         38
  C:046EH         LINE#         39
  C:0472H         LINE#         40
  C:0474H         LINE#         41
  C:0478H         LINE#         43
  C:047EH         LINE#         44
  C:0485H         LINE#         45
  C:048CH         LINE#         46
  C:0491H         LINE#         48
  C:0497H         LINE#         49
  C:049EH         LINE#         50
  C:04A5H         LINE#         51
  C:04AAH         LINE#         53
  C:04B0H         LINE#         54
  C:04B7H         LINE#         55
  C:04BEH         LINE#         56
  C:04C3H         LINE#         58
  C:04C9H         LINE#         59
  C:04CEH         LINE#         60
  C:04D4H         LINE#         61
  -------         ENDPROC       PWMA_CONFIG
  -------         PROC          PWMB_CONFIG
  C:0653H         LINE#         73
  C:0653H         LINE#         74
  C:0653H         LINE#         76
  C:0656H         LINE#         77
  C:0659H         LINE#         78
  C:0660H         LINE#         80
  C:0665H         LINE#         81
  C:066CH         LINE#         82
  C:0673H         LINE#         83
  C:0677H         LINE#         84
  C:067EH         LINE#         86
  C:0684H         LINE#         87
  C:0687H         LINE#         89
  C:068DH         LINE#         90
  C:068FH         LINE#         91
  C:0693H         LINE#         92
  C:069AH         LINE#         94
BL51 BANKED LINKER/LOCATER V6.22.2.0                                                  01/17/2023  15:09:26  PAGE 6


  C:06A0H         LINE#         96
  -------         ENDPROC       PWMB_CONFIG
  -------         PROC          PWMB_ISR
  C:05A8H         LINE#         101
  C:05BFH         LINE#         103
  C:05C6H         LINE#         104
  C:05C6H         LINE#         105
  C:05CAH         LINE#         106
  C:05CCH         LINE#         108
  C:05EAH         LINE#         109
  C:05EAH         LINE#         110
  -------         ENDPROC       PWMB_ISR
  -------         PROC          ADC_CONFIG
  C:0084H         LINE#         12
  C:0084H         LINE#         13
  C:0084H         LINE#         15
  C:0087H         LINE#         16
  C:008AH         LINE#         19
  C:008DH         LINE#         20
  C:0090H         LINE#         22
  C:0093H         LINE#         23
  C:0096H         LINE#         24
  C:009CH         LINE#         25
  -------         ENDPROC       ADC_CONFIG
  -------         PROC          _DELAY_N_MS
  D:0007H         SYMBOL        dly
  -------         DO            
  D:0004H         SYMBOL        j
  -------         ENDDO         
  C:06A1H         LINE#         7
  C:06A1H         LINE#         8
  C:06A1H         LINE#         11
  C:06A1H         LINE#         12
  C:06A5H         LINE#         13
  C:06AEH         LINE#         14
  C:06B0H         LINE#         15
  -------         ENDPROC       _DELAY_N_MS
  -------         PROC          L?0127
  -------         ENDPROC       L?0127
  -------         PROC          _DELAY_US
  D:0007H         SYMBOL        us
  C:006DH         LINE#         17
  C:006DH         LINE#         18
  C:006DH         LINE#         20
  C:006DH         LINE#         21
  C:006EH         LINE#         22
  C:006FH         LINE#         23
  C:0070H         LINE#         24
  C:0071H         LINE#         25
  C:0072H         LINE#         26
  C:0073H         LINE#         27
  C:0074H         LINE#         28
  C:0075H         LINE#         29
  C:0076H         LINE#         30
  C:0077H         LINE#         31
  C:0078H         LINE#         32
  C:0079H         LINE#         33
BL51 BANKED LINKER/LOCATER V6.22.2.0                                                  01/17/2023  15:09:26  PAGE 7


  C:007AH         LINE#         34
  C:007BH         LINE#         35
  C:007CH         LINE#         36
  C:007DH         LINE#         37
  C:007EH         LINE#         38
  C:007FH         LINE#         39
  C:0080H         LINE#         40
  C:0081H         LINE#         41
  C:0081H         LINE#         42
  C:0083H         LINE#         43
  -------         ENDPROC       _DELAY_US
  -------         PROC          MOTOR_STEP
  C:0377H         LINE#         47
  C:0377H         LINE#         48
  C:0377H         LINE#         49
  C:0392H         LINE#         50
  C:0392H         LINE#         51
  C:0392H         LINE#         52
  C:0397H         LINE#         53
  C:0399H         LINE#         54
  C:039BH         LINE#         55
  C:039FH         LINE#         56
  C:03A1H         LINE#         57
  C:03A3H         LINE#         58
  C:03A6H         LINE#         59
  C:03ABH         LINE#         62
  C:03ABH         LINE#         63
  C:03B1H         LINE#         64
  C:03B3H         LINE#         65
  C:03B5H         LINE#         66
  C:03B9H         LINE#         67
  C:03BBH         LINE#         68
  C:03BEH         LINE#         69
  C:03C3H         LINE#         70
  C:03C3H         LINE#         71
  C:03C5H         LINE#         72
  C:03C5H         LINE#         73
  C:03CAH         LINE#         74
  C:03CCH         LINE#         75
  C:03CEH         LINE#         76
  C:03D2H         LINE#         77
  C:03D5H         LINE#         78
  C:03D7H         LINE#         79
  C:03DAH         LINE#         80
  C:03DFH         LINE#         81
  C:03DFH         LINE#         82
  C:03E1H         LINE#         83
  C:03E1H         LINE#         84
  C:03E7H         LINE#         85
  C:03E9H         LINE#         86
  C:03EBH         LINE#         87
  C:03EFH         LINE#         88
  C:03F1H         LINE#         89
  C:03F4H         LINE#         90
  C:03F9H         LINE#         91
  C:03F9H         LINE#         92
  C:03FBH         LINE#         93
BL51 BANKED LINKER/LOCATER V6.22.2.0                                                  01/17/2023  15:09:26  PAGE 8


  C:03FBH         LINE#         94
  C:0400H         LINE#         95
  C:0402H         LINE#         96
  C:0404H         LINE#         97
  C:0408H         LINE#         98
  C:040BH         LINE#         99
  C:040DH         LINE#         100
  C:0410H         LINE#         101
  C:0417H         LINE#         102
  C:0417H         LINE#         103
  C:0419H         LINE#         104
  C:0419H         LINE#         105
  C:041FH         LINE#         106
  C:0421H         LINE#         107
  C:0423H         LINE#         108
  C:0427H         LINE#         109
  C:0429H         LINE#         110
  C:042CH         LINE#         111
  C:0433H         LINE#         112
  C:0436H         LINE#         113
  C:0436H         LINE#         114
  C:0436H         LINE#         115
  C:0436H         LINE#         116
  C:0436H         LINE#         117
  -------         ENDPROC       MOTOR_STEP
  -------         PROC          MOTOR_START
  -------         DO            
  D:0004H         SYMBOL        timer
  D:0002H         SYMBOL        i
  -------         ENDDO         
  C:04D5H         LINE#         119
  C:04D5H         LINE#         120
  C:04D5H         LINE#         122
  C:04D8H         LINE#         124
  C:04DBH         LINE#         125
  C:04E1H         LINE#         126
  C:04E5H         LINE#         127
  C:04E9H         LINE#         128
  C:04ECH         LINE#         129
  C:04EFH         LINE#         130
  C:04F4H         LINE#         132
  C:04F8H         LINE#         134
  C:04F8H         LINE#         135
  C:04F8H         LINE#         136
  C:050EH         LINE#         137
  C:0523H         LINE#         138
  C:0533H         LINE#         139
  C:0536H         LINE#         140
  C:053FH         LINE#         141
  C:053FH         LINE#         142
  -------         ENDPROC       MOTOR_START
  -------         PROC          TIMER0_CONFIG
  C:00C4H         LINE#         9
  C:00C4H         LINE#         10
  C:00C4H         LINE#         11
  C:00C7H         LINE#         12
  C:00CAH         LINE#         15
BL51 BANKED LINKER/LOCATER V6.22.2.0                                                  01/17/2023  15:09:26  PAGE 9


  C:00CDH         LINE#         16
  C:00D0H         LINE#         17
  C:00D2H         LINE#         18
  C:00D4H         LINE#         19
  -------         ENDPROC       TIMER0_CONFIG
  -------         PROC          TIMER1_CONFIG
  C:004FH         LINE#         22
  C:004FH         LINE#         23
  C:004FH         LINE#         24
  C:0052H         LINE#         25
  C:0055H         LINE#         26
  C:0058H         LINE#         28
  C:005BH         LINE#         29
  C:005DH         LINE#         30
  C:005FH         LINE#         31
  C:0061H         LINE#         32
  -------         ENDPROC       TIMER1_CONFIG
  -------         PROC          TIMER2_CONFIG
  C:06B1H         LINE#         35
  C:06B1H         LINE#         36
  C:06B1H         LINE#         37
  C:06B4H         LINE#         38
  C:06B7H         LINE#         39
  C:06BAH         LINE#         40
  C:06BCH         LINE#         41
  C:06BFH         LINE#         43
  -------         ENDPROC       TIMER2_CONFIG
  -------         PROC          TIMER0_ISR
  C:0003H         LINE#         74
  C:0003H         LINE#         77
  C:0005H         LINE#         78
  -------         ENDPROC       TIMER0_ISR
  -------         PROC          TIMER1_ISR
  C:0006H         LINE#         80
  C:0006H         LINE#         83
  C:0008H         LINE#         84
  -------         ENDPROC       TIMER1_ISR
  -------         PROC          TIMER2_ISR
  C:05FFH         LINE#         94
  C:060EH         LINE#         96
  C:0611H         LINE#         98
  C:061AH         LINE#         99
  C:061AH         LINE#         100
  C:061DH         LINE#         101
  C:0620H         LINE#         102
  C:0620H         LINE#         103
  C:0630H         LINE#         104
  C:0633H         LINE#         105
  C:0633H         LINE#         107
  C:0636H         LINE#         108
  C:0639H         LINE#         109
  C:063CH         LINE#         110
  C:063EH         LINE#         111
  C:0644H         LINE#         112
  C:0644H         LINE#         113
  C:0646H         LINE#         114
  C:0646H         LINE#         115
BL51 BANKED LINKER/LOCATER V6.22.2.0                                                  01/17/2023  15:09:26  PAGE 10


  -------         ENDPROC       TIMER2_ISR
  -------         PROC          CMP_CONFIG
  C:000EH         LINE#         9
  C:000EH         LINE#         10
  C:000EH         LINE#         12
  C:0011H         LINE#         13
  C:0014H         LINE#         15
  C:0017H         LINE#         18
  C:001AH         LINE#         19
  -------         ENDPROC       CMP_CONFIG
  -------         PROC          CMP_ISR
  -------         DO            
  D:0004H         SYMBOL        phase_time
  D:0007H         SYMBOL        i
  -------         ENDDO         
  C:0291H         LINE#         24
  C:02A4H         LINE#         29
  C:02A7H         LINE#         31
  C:02AEH         LINE#         32
  C:02AEH         LINE#         34
  C:02B0H         LINE#         36
  C:02B3H         LINE#         37
  C:02B3H         LINE#         39
  C:02B5H         LINE#         40
  C:02B9H         LINE#         41
  C:02BBH         LINE#         43
  C:02BBH         LINE#         45
  C:02CEH         LINE#         46
  C:02CEH         LINE#         47
  C:02CEH         LINE#         51
  C:02D1H         LINE#         52
  C:02D4H         LINE#         53
  C:02D6H         LINE#         55
  C:02E2H         LINE#         56
  C:02F2H         LINE#         57
  C:0302H         LINE#         58
  C:0302H         LINE#         59
  C:0311H         LINE#         60
  C:0314H         LINE#         61
  C:0322H         LINE#         62
  C:0332H         LINE#         63
  C:0332H         LINE#         64
  C:0335H         LINE#         65
  C:0335H         LINE#         66
  C:0348H         LINE#         67
  C:034CH         LINE#         79
  C:034FH         LINE#         80
  C:0356H         LINE#         81
  C:035CH         LINE#         82
  C:035EH         LINE#         83
  C:0360H         LINE#         84
  C:0363H         LINE#         85
  C:0366H         LINE#         86
  C:0366H         LINE#         87
  -------         ENDPROC       CMP_ISR
  -------         PROC          _BEEP_1KHZ
  D:0004H         SYMBOL        _ms
BL51 BANKED LINKER/LOCATER V6.22.2.0                                                  01/17/2023  15:09:26  PAGE 11


  C:001EH         LINE#         4
  C:0022H         LINE#         5
  C:0022H         LINE#         6
  C:0024H         LINE#         8
  C:002EH         LINE#         9
  C:002EH         LINE#         10
  C:0030H         LINE#         11
  C:0035H         LINE#         12
  C:0037H         LINE#         13
  C:0037H         LINE#         14
  C:003AH         LINE#         16
  C:003CH         LINE#         17
  C:0041H         LINE#         18
  C:0043H         LINE#         19
  C:0043H         LINE#         20
  C:0046H         LINE#         21
  C:0048H         LINE#         22
  C:004AH         LINE#         23
  C:004CH         LINE#         24
  C:004EH         LINE#         25
  -------         ENDPROC       _BEEP_1KHZ
  -------         PROC          MAIN
  -------         DO            
  D:0008H         SYMBOL        i
  D:0009H         SYMBOL        j
  D:000AH         SYMBOL        sum
  -------         ENDDO         
  C:00DEH         LINE#         40
  C:00DEH         LINE#         41
  C:00DEH         LINE#         46
  C:00E1H         LINE#         48
  C:00E4H         LINE#         51
  C:00E7H         LINE#         52
  C:00EAH         LINE#         53
  C:00EDH         LINE#         54
  C:00F0H         LINE#         55
  C:00F3H         LINE#         56
  C:00F6H         LINE#         60
  C:00F9H         LINE#         65
  C:00FCH         LINE#         66
  C:00FEH         LINE#         67
  C:0100H         LINE#         69
  C:0105H         LINE#         70
  C:010CH         LINE#         71
  C:0111H         LINE#         73
  C:0113H         LINE#         77
  C:0113H         LINE#         78
  C:0113H         LINE#         80
  C:0116H         LINE#         81
  C:0116H         LINE#         82
  C:0118H         LINE#         84
  C:011CH         LINE#         85
  C:011CH         LINE#         86
  C:0122H         LINE#         87
  C:0122H         LINE#         88
  C:0124H         LINE#         89
  C:0126H         LINE#         90
BL51 BANKED LINKER/LOCATER V6.22.2.0                                                  01/17/2023  15:09:26  PAGE 12


  C:0129H         LINE#         91
  C:012DH         LINE#         92
  C:0133H         LINE#         93
  C:0137H         LINE#         94
  C:013BH         LINE#         95
  C:013DH         LINE#         96
  C:013FH         LINE#         97
  C:0141H         LINE#         98
  C:0146H         LINE#         99
  C:0146H         LINE#         100
  C:0146H         LINE#         101
  C:0154H         LINE#         102
  C:0154H         LINE#         104
  C:0156H         LINE#         105
  C:0174H         LINE#         106
  C:0177H         LINE#         107
  C:0179H         LINE#         108
  C:017CH         LINE#         109
  C:017FH         LINE#         110
  C:0189H         LINE#         111
  C:018CH         LINE#         112
  C:018EH         LINE#         113
  C:0193H         LINE#         114
  C:0198H         LINE#         115
  C:019BH         LINE#         116
  C:019BH         LINE#         117
  C:019EH         LINE#         118
  C:019EH         LINE#         120
  C:01A7H         LINE#         121
  C:01B0H         LINE#         122
  C:01BBH         LINE#         123
  C:01BBH         LINE#         124
  C:01BDH         LINE#         125
  C:01C0H         LINE#         126
  C:01C3H         LINE#         127
  C:01C7H         LINE#         128
  C:01C9H         LINE#         129
  C:01CBH         LINE#         130
  C:01CDH         LINE#         131
  C:01CDH         LINE#         132
  C:01D3H         LINE#         133
  C:01D7H         LINE#         134
  C:01DBH         LINE#         135
  C:01DBH         LINE#         137
  C:01E7H         LINE#         138
  C:01E9H         LINE#         139
  C:01ECH         LINE#         140
  C:0202H         LINE#         141
  C:0202H         LINE#         142
  C:0225H         LINE#         143
  C:0229H         LINE#         144
  C:023AH         LINE#         145
  C:0245H         LINE#         146
  C:0245H         LINE#         147
  C:0248H         LINE#         148
  C:024BH         LINE#         149
  C:0256H         LINE#         150
BL51 BANKED LINKER/LOCATER V6.22.2.0                                                  01/17/2023  15:09:26  PAGE 13


  C:0256H         LINE#         151
  C:0259H         LINE#         152
  C:025CH         LINE#         153
  C:0278H         LINE#         154
  C:0278H         LINE#         155
  C:028EH         LINE#         156
  C:028EH         LINE#         158
  C:028EH         LINE#         160
  -------         ENDPROC       MAIN
  -------         PROC          PORT_INIT
  C:00AEH         LINE#         163
  C:00AEH         LINE#         164
  C:00AEH         LINE#         165
  C:00B1H         LINE#         166
  C:00B3H         LINE#         167
  C:00B5H         LINE#         168
  C:00B7H         LINE#         169
  C:00B9H         LINE#         170
  C:00BBH         LINE#         171
  C:00BDH         LINE#         172
  C:00BFH         LINE#         173
  C:00C1H         LINE#         174
  C:00C3H         LINE#         175
  -------         ENDPROC       PORT_INIT
  -------         ENDMOD        MAIN

  -------         MODULE        ?C?UIDIV
  C:0540H         PUBLIC        ?C?UIDIV
  -------         ENDMOD        ?C?UIDIV

  -------         MODULE        ?C?ULSHR
  C:0595H         PUBLIC        ?C?ULSHR
  -------         ENDMOD        ?C?ULSHR

Program Size: data=66.6 xdata=0 code=1717
LINK/LOCATE RUN COMPLETE.  0 WARNING(S),  0 ERROR(S)
